target datalayout = "e-m:e-p270:32:32-p271:32:32-p272:64:64-i64:64-i128:128-f80:128-n8:16:32:64-S128"
target triple = "x86_64-pc-linux-gnu"

@.str.17 = private unnamed_addr constant [2 x i8] c",\00", align 1
@.str.87 = private unnamed_addr constant [2 x i8] c"{\00", align 1
@.str.88 = private unnamed_addr constant [2 x i8] c"}\00", align 1
@.str.100 = private unnamed_addr constant [5 x i8] c" => \00", align 1

; Function Attrs: nounwind uwtable
define dso_local ptr @ldbRedisProtocolToHuman_Map(ptr noundef %0, ptr noundef %1) #0 {
  %3 = alloca ptr, align 8
  %4 = alloca ptr, align 8
  %5 = alloca ptr, align 8
  %6 = alloca i64, align 8
  %7 = alloca i32, align 4
  store ptr %0, ptr %3, align 8, !tbaa !100
  store ptr %1, ptr %4, align 8, !tbaa !16
  call void @llvm.lifetime.start.p0(i64 8, ptr %5) #14
  %8 = load ptr, ptr %4, align 8, !tbaa !16
  %9 = getelementptr inbounds i8, ptr %8, i64 1
  %10 = call ptr @strchr(ptr noundef %9, i32 noundef 13) #13
  store ptr %10, ptr %5, align 8, !tbaa !16
  call void @llvm.lifetime.start.p0(i64 8, ptr %6) #14
  call void @llvm.lifetime.start.p0(i64 4, ptr %7) #14
  store i32 0, ptr %7, align 4, !tbaa !19
  %11 = load ptr, ptr %4, align 8, !tbaa !16
  %12 = getelementptr inbounds i8, ptr %11, i64 1
  %13 = load ptr, ptr %5, align 8, !tbaa !16
  %14 = load ptr, ptr %4, align 8, !tbaa !16
  %15 = ptrtoint ptr %13 to i64
  %16 = ptrtoint ptr %14 to i64
  %17 = sub i64 %15, %16
  %18 = sub nsw i64 %17, 1
  %19 = call i32 @string2ll(ptr noundef %12, i64 noundef %18, ptr noundef %6)
  %20 = load ptr, ptr %5, align 8, !tbaa !16
  %21 = getelementptr inbounds i8, ptr %20, i64 2
  store ptr %21, ptr %5, align 8, !tbaa !16
  %22 = load ptr, ptr %3, align 8, !tbaa !100
  %23 = load ptr, ptr %22, align 8, !tbaa !16
  %24 = call ptr @sdscatlen(ptr noundef %23, ptr noundef @.str.87, i64 noundef 1)
  %25 = load ptr, ptr %3, align 8, !tbaa !100
  store ptr %24, ptr %25, align 8, !tbaa !16
  store i32 0, ptr %7, align 4, !tbaa !19
  br label %26

26:                                               ; preds = %53, %2
  %27 = load i32, ptr %7, align 4, !tbaa !19
  %28 = sext i32 %27 to i64
  %29 = load i64, ptr %6, align 8, !tbaa !143
  %30 = icmp slt i64 %28, %29
  br i1 %30, label %31, label %56

31:                                               ; preds = %26
  %32 = load ptr, ptr %3, align 8, !tbaa !100
  %33 = load ptr, ptr %5, align 8, !tbaa !16
  %34 = call ptr @ldbRedisProtocolToHuman(ptr noundef %32, ptr noundef %33)
  store ptr %34, ptr %5, align 8, !tbaa !16
  %35 = load ptr, ptr %3, align 8, !tbaa !100
  %36 = load ptr, ptr %35, align 8, !tbaa !16
  %37 = call ptr @sdscatlen(ptr noundef %36, ptr noundef @.str.100, i64 noundef 4)
  %38 = load ptr, ptr %3, align 8, !tbaa !100
  store ptr %37, ptr %38, align 8, !tbaa !16
  %39 = load ptr, ptr %3, align 8, !tbaa !100
  %40 = load ptr, ptr %5, align 8, !tbaa !16
  %41 = call ptr @ldbRedisProtocolToHuman(ptr noundef %39, ptr noundef %40)
  store ptr %41, ptr %5, align 8, !tbaa !16
  %42 = load i32, ptr %7, align 4, !tbaa !19
  %43 = sext i32 %42 to i64
  %44 = load i64, ptr %6, align 8, !tbaa !143
  %45 = sub nsw i64 %44, 1
  %46 = icmp ne i64 %43, %45
  br i1 %46, label %47, label %52

47:                                               ; preds = %31
  %48 = load ptr, ptr %3, align 8, !tbaa !100
  %49 = load ptr, ptr %48, align 8, !tbaa !16
  %50 = call ptr @sdscatlen(ptr noundef %49, ptr noundef @.str.17, i64 noundef 1)
  %51 = load ptr, ptr %3, align 8, !tbaa !100
  store ptr %50, ptr %51, align 8, !tbaa !16
  br label %52

52:                                               ; preds = %47, %31
  br label %53

53:                                               ; preds = %52
  %54 = load i32, ptr %7, align 4, !tbaa !19
  %55 = add nsw i32 %54, 1
  store i32 %55, ptr %7, align 4, !tbaa !19
  br label %26, !llvm.loop !177

56:                                               ; preds = %26
  %57 = load ptr, ptr %3, align 8, !tbaa !100
  %58 = load ptr, ptr %57, align 8, !tbaa !16
  %59 = call ptr @sdscatlen(ptr noundef %58, ptr noundef @.str.88, i64 noundef 1)
  %60 = load ptr, ptr %3, align 8, !tbaa !100
  store ptr %59, ptr %60, align 8, !tbaa !16
  %61 = load ptr, ptr %5, align 8, !tbaa !16
  call void @llvm.lifetime.end.p0(i64 4, ptr %7) #14
  call void @llvm.lifetime.end.p0(i64 8, ptr %6) #14
  call void @llvm.lifetime.end.p0(i64 8, ptr %5) #14
  ret ptr %61
}