; Function Attrs: nounwind uwtable
define dso_local ptr @ldbRedisProtocolToHuman_Map(ptr noundef captures(none) %0, ptr noundef %1) local_unnamed_addr #0 {
  %3 = alloca i64, align 8
  %4 = getelementptr inbounds nuw i8, ptr %1, i64 1
  %5 = tail call ptr @strchr(ptr noundef nonnull dereferenceable(1) %4, i32 noundef 13) #18
  call void @llvm.lifetime.start.p0(i64 8, ptr nonnull %3) #19
  %6 = ptrtoint ptr %5 to i64
  %7 = ptrtoint ptr %1 to i64
  %8 = xor i64 %7, -1
  %9 = add i64 %6, %8
  %10 = call i32 @string2ll(ptr noundef nonnull %4, i64 noundef %9, ptr noundef nonnull %3) #19
  %11 = getelementptr inbounds nuw i8, ptr %5, i64 2
  %12 = load ptr, ptr %0, align 8, !tbaa !92
  %13 = call ptr @sdscatlen(ptr noundef %12, ptr noundef nonnull @.str.87, i64 noundef 1) #19
  store ptr %13, ptr %0, align 8, !tbaa !92
  %14 = load i64, ptr %3, align 8, !tbaa !131
  %15 = icmp sgt i64 %14, 0
  br i1 %15, label %.lr.ph, label %._crit_edge

.lr.ph:                                           ; preds = %2, %25
  %indvars.iv = phi i64 [ %indvars.iv.next, %25 ], [ 0, %2 ]
  %.02022 = phi ptr [ %19, %25 ], [ %11, %2 ]
  %16 = call ptr @ldbRedisProtocolToHuman(ptr noundef nonnull %0, ptr noundef %.02022)
  %17 = load ptr, ptr %0, align 8, !tbaa !92
  %18 = call ptr @sdscatlen(ptr noundef %17, ptr noundef nonnull @.str.100, i64 noundef 4) #19
  store ptr %18, ptr %0, align 8, !tbaa !92
  %19 = call ptr @ldbRedisProtocolToHuman(ptr noundef nonnull %0, ptr noundef %16)
  %20 = load i64, ptr %3, align 8, !tbaa !131
  %21 = add nsw i64 %20, -1
  %.not = icmp eq i64 %21, %indvars.iv
  br i1 %.not, label %25, label %22

22:                                               ; preds = %.lr.ph
  %23 = load ptr, ptr %0, align 8, !tbaa !92
  %24 = call ptr @sdscatlen(ptr noundef %23, ptr noundef nonnull @.str.17, i64 noundef 1) #19
  store ptr %24, ptr %0, align 8, !tbaa !92
  %.pre = load i64, ptr %3, align 8, !tbaa !131
  br label %25

25:                                               ; preds = %.lr.ph, %22
  %26 = phi i64 [ %20, %.lr.ph ], [ %.pre, %22 ]
  %indvars.iv.next = add nuw nsw i64 %indvars.iv, 1
  %27 = icmp sgt i64 %26, %indvars.iv.next
  br i1 %27, label %.lr.ph, label %._crit_edge.loopexit, !llvm.loop !160

._crit_edge.loopexit:                             ; preds = %25
  %.pre25 = load ptr, ptr %0, align 8, !tbaa !92
  br label %._crit_edge

._crit_edge:                                      ; preds = %._crit_edge.loopexit, %2
  %28 = phi ptr [ %13, %2 ], [ %.pre25, %._crit_edge.loopexit ]
  %.020.lcssa = phi ptr [ %11, %2 ], [ %19, %._crit_edge.loopexit ]
  %29 = call ptr @sdscatlen(ptr noundef %28, ptr noundef nonnull @.str.88, i64 noundef 1) #19
  store ptr %29, ptr %0, align 8, !tbaa !92
  call void @llvm.lifetime.end.p0(i64 8, ptr nonnull %3) #19
  ret ptr %.020.lcssa
}